; ModuleID = '32/442.c'
source_filename = "32/442.c"
target datalayout = "e-m:e-p270:32:32-p271:32:32-p272:64:64-i64:64-f80:128-n8:16:32:64-S128"
target triple = "x86_64-pc-linux-gnu"

@.str = private unnamed_addr constant [3 x i8] c"%d\00", align 1
@.str.1 = private unnamed_addr constant [2 x i8] c"\0A\00", align 1

; Function Attrs: noinline nounwind uwtable
define dso_local i32 @main() #0 {
  %1 = alloca i32, align 4
  %2 = alloca i32, align 4
  %3 = alloca i32, align 4
  %4 = alloca i32, align 4
  %5 = alloca i32, align 4
  %6 = alloca i32, align 4
  %7 = alloca i32, align 4
  %8 = alloca i32, align 4
  %9 = alloca [100 x i32], align 16
  %10 = alloca [100 x i8], align 16
  %11 = alloca [100 x i8], align 16
  store i32 0, i32* %1, align 4
  %12 = call i32 (i8*, ...) @__isoc99_scanf(i8* getelementptr inbounds ([3 x i8], [3 x i8]* @.str, i64 0, i64 0), i32* %6)
  store i32 0, i32* %7, align 4
  br label %13

13:                                               ; preds = %189, %0
  %14 = load i32, i32* %7, align 4
  %15 = load i32, i32* %6, align 4
  %16 = icmp slt i32 %14, %15
  br i1 %16, label %17, label %192

17:                                               ; preds = %13
  %18 = getelementptr inbounds [100 x i8], [100 x i8]* %10, i64 0, i64 0
  %19 = call i32 (i8*, ...) bitcast (i32 (...)* @gets to i32 (i8*, ...)*)(i8* %18)
  %20 = getelementptr inbounds [100 x i8], [100 x i8]* %10, i64 0, i64 0
  %21 = call i32 (i8*, ...) bitcast (i32 (...)* @gets to i32 (i8*, ...)*)(i8* %20)
  %22 = getelementptr inbounds [100 x i8], [100 x i8]* %11, i64 0, i64 0
  %23 = call i32 (i8*, ...) bitcast (i32 (...)* @gets to i32 (i8*, ...)*)(i8* %22)
  %24 = getelementptr inbounds [100 x i8], [100 x i8]* %10, i64 0, i64 0
  %25 = call i64 @strlen(i8* %24) #3
  %26 = trunc i64 %25 to i32
  store i32 %26, i32* %2, align 4
  %27 = getelementptr inbounds [100 x i8], [100 x i8]* %11, i64 0, i64 0
  %28 = call i64 @strlen(i8* %27) #3
  %29 = trunc i64 %28 to i32
  store i32 %29, i32* %3, align 4
  %30 = load i32, i32* %2, align 4
  %31 = load i32, i32* %3, align 4
  %32 = sub nsw i32 %30, %31
  store i32 %32, i32* %5, align 4
  %33 = load i32, i32* %2, align 4
  %34 = sub nsw i32 %33, 1
  store i32 %34, i32* %4, align 4
  br label %35

35:                                               ; preds = %133, %17
  %36 = load i32, i32* %4, align 4
  %37 = load i32, i32* %2, align 4
  %38 = load i32, i32* %3, align 4
  %39 = sub nsw i32 %37, %38
  %40 = sub nsw i32 %39, 1
  %41 = icmp sgt i32 %36, %40
  br i1 %41, label %42, label %136

42:                                               ; preds = %35
  %43 = load i32, i32* %4, align 4
  %44 = sext i32 %43 to i64
  %45 = getelementptr inbounds [100 x i8], [100 x i8]* %10, i64 0, i64 %44
  %46 = load i8, i8* %45, align 1
  %47 = sext i8 %46 to i32
  %48 = load i32, i32* %4, align 4
  %49 = load i32, i32* %5, align 4
  %50 = sub nsw i32 %48, %49
  %51 = sext i32 %50 to i64
  %52 = getelementptr inbounds [100 x i8], [100 x i8]* %11, i64 0, i64 %51
  %53 = load i8, i8* %52, align 1
  %54 = sext i8 %53 to i32
  %55 = icmp sgt i32 %47, %54
  br i1 %55, label %70, label %56

56:                                               ; preds = %42
  %57 = load i32, i32* %4, align 4
  %58 = sext i32 %57 to i64
  %59 = getelementptr inbounds [100 x i8], [100 x i8]* %10, i64 0, i64 %58
  %60 = load i8, i8* %59, align 1
  %61 = sext i8 %60 to i32
  %62 = load i32, i32* %4, align 4
  %63 = load i32, i32* %5, align 4
  %64 = sub nsw i32 %62, %63
  %65 = sext i32 %64 to i64
  %66 = getelementptr inbounds [100 x i8], [100 x i8]* %11, i64 0, i64 %65
  %67 = load i8, i8* %66, align 1
  %68 = sext i8 %67 to i32
  %69 = icmp eq i32 %61, %68
  br i1 %69, label %70, label %87

70:                                               ; preds = %56, %42
  %71 = load i32, i32* %4, align 4
  %72 = sext i32 %71 to i64
  %73 = getelementptr inbounds [100 x i8], [100 x i8]* %10, i64 0, i64 %72
  %74 = load i8, i8* %73, align 1
  %75 = sext i8 %74 to i32
  %76 = load i32, i32* %4, align 4
  %77 = load i32, i32* %5, align 4
  %78 = sub nsw i32 %76, %77
  %79 = sext i32 %78 to i64
  %80 = getelementptr inbounds [100 x i8], [100 x i8]* %11, i64 0, i64 %79
  %81 = load i8, i8* %80, align 1
  %82 = sext i8 %81 to i32
  %83 = sub nsw i32 %75, %82
  %84 = load i32, i32* %4, align 4
  %85 = sext i32 %84 to i64
  %86 = getelementptr inbounds [100 x i32], [100 x i32]* %9, i64 0, i64 %85
  store i32 %83, i32* %86, align 4
  br label %132

87:                                               ; preds = %56
  %88 = load i32, i32* %4, align 4
  %89 = sext i32 %88 to i64
  %90 = getelementptr inbounds [100 x i8], [100 x i8]* %10, i64 0, i64 %89
  %91 = load i8, i8* %90, align 1
  %92 = sext i8 %91 to i32
  %93 = load i32, i32* %4, align 4
  %94 = load i32, i32* %5, align 4
  %95 = sub nsw i32 %93, %94
  %96 = sext i32 %95 to i64
  %97 = getelementptr inbounds [100 x i8], [100 x i8]* %11, i64 0, i64 %96
  %98 = load i8, i8* %97, align 1
  %99 = sext i8 %98 to i32
  %100 = icmp slt i32 %92, %99
  br i1 %100, label %101, label %131

101:                                              ; preds = %87
  %102 = load i32, i32* %4, align 4
  %103 = sext i32 %102 to i64
  %104 = getelementptr inbounds [100 x i8], [100 x i8]* %10, i64 0, i64 %103
  %105 = load i8, i8* %104, align 1
  %106 = sext i8 %105 to i32
  %107 = add nsw i32 %106, 10
  %108 = load i32, i32* %4, align 4
  %109 = load i32, i32* %5, align 4
  %110 = sub nsw i32 %108, %109
  %111 = sext i32 %110 to i64
  %112 = getelementptr inbounds [100 x i8], [100 x i8]* %11, i64 0, i64 %111
  %113 = load i8, i8* %112, align 1
  %114 = sext i8 %113 to i32
  %115 = sub nsw i32 %107, %114
  %116 = load i32, i32* %4, align 4
  %117 = sext i32 %116 to i64
  %118 = getelementptr inbounds [100 x i32], [100 x i32]* %9, i64 0, i64 %117
  store i32 %115, i32* %118, align 4
  %119 = load i32, i32* %4, align 4
  %120 = sub nsw i32 %119, 1
  %121 = sext i32 %120 to i64
  %122 = getelementptr inbounds [100 x i8], [100 x i8]* %10, i64 0, i64 %121
  %123 = load i8, i8* %122, align 1
  %124 = sext i8 %123 to i32
  %125 = sub nsw i32 %124, 1
  %126 = trunc i32 %125 to i8
  %127 = load i32, i32* %4, align 4
  %128 = sub nsw i32 %127, 1
  %129 = sext i32 %128 to i64
  %130 = getelementptr inbounds [100 x i8], [100 x i8]* %10, i64 0, i64 %129
  store i8 %126, i8* %130, align 1
  br label %131

131:                                              ; preds = %101, %87
  br label %132

132:                                              ; preds = %131, %70
  br label %133

133:                                              ; preds = %132
  %134 = load i32, i32* %4, align 4
  %135 = add nsw i32 %134, -1
  store i32 %135, i32* %4, align 4
  br label %35

136:                                              ; preds = %35
  store i32 0, i32* %4, align 4
  br label %137

137:                                              ; preds = %153, %136
  %138 = load i32, i32* %4, align 4
  %139 = load i32, i32* %2, align 4
  %140 = load i32, i32* %3, align 4
  %141 = sub nsw i32 %139, %140
  %142 = icmp slt i32 %138, %141
  br i1 %142, label %143, label %156

143:                                              ; preds = %137
  %144 = load i32, i32* %4, align 4
  %145 = sext i32 %144 to i64
  %146 = getelementptr inbounds [100 x i8], [100 x i8]* %10, i64 0, i64 %145
  %147 = load i8, i8* %146, align 1
  %148 = sext i8 %147 to i32
  %149 = sub nsw i32 %148, 48
  %150 = load i32, i32* %4, align 4
  %151 = sext i32 %150 to i64
  %152 = getelementptr inbounds [100 x i32], [100 x i32]* %9, i64 0, i64 %151
  store i32 %149, i32* %152, align 4
  br label %153

153:                                              ; preds = %143
  %154 = load i32, i32* %4, align 4
  %155 = add nsw i32 %154, 1
  store i32 %155, i32* %4, align 4
  br label %137

156:                                              ; preds = %137
  store i32 0, i32* %4, align 4
  br label %157

157:                                              ; preds = %184, %156
  %158 = load i32, i32* %4, align 4
  %159 = load i32, i32* %2, align 4
  %160 = icmp slt i32 %158, %159
  br i1 %160, label %161, label %187

161:                                              ; preds = %157
  %162 = load i32, i32* %4, align 4
  %163 = sext i32 %162 to i64
  %164 = getelementptr inbounds [100 x i32], [100 x i32]* %9, i64 0, i64 %163
  %165 = load i32, i32* %164, align 4
  %166 = icmp eq i32 %165, 0
  br i1 %166, label %167, label %168

167:                                              ; preds = %161
  br label %184

168:                                              ; preds = %161
  %169 = load i32, i32* %4, align 4
  store i32 %169, i32* %8, align 4
  br label %170

170:                                              ; preds = %180, %168
  %171 = load i32, i32* %8, align 4
  %172 = load i32, i32* %2, align 4
  %173 = icmp slt i32 %171, %172
  br i1 %173, label %174, label %183

174:                                              ; preds = %170
  %175 = load i32, i32* %8, align 4
  %176 = sext i32 %175 to i64
  %177 = getelementptr inbounds [100 x i32], [100 x i32]* %9, i64 0, i64 %176
  %178 = load i32, i32* %177, align 4
  %179 = call i32 (i8*, ...) @printf(i8* getelementptr inbounds ([3 x i8], [3 x i8]* @.str, i64 0, i64 0), i32 %178)
  br label %180

180:                                              ; preds = %174
  %181 = load i32, i32* %8, align 4
  %182 = add nsw i32 %181, 1
  store i32 %182, i32* %8, align 4
  br label %170

183:                                              ; preds = %170
  br label %187

184:                                              ; preds = %167
  %185 = load i32, i32* %4, align 4
  %186 = add nsw i32 %185, 1
  store i32 %186, i32* %4, align 4
  br label %157

187:                                              ; preds = %183, %157
  %188 = call i32 (i8*, ...) @printf(i8* getelementptr inbounds ([2 x i8], [2 x i8]* @.str.1, i64 0, i64 0))
  br label %189

189:                                              ; preds = %187
  %190 = load i32, i32* %7, align 4
  %191 = add nsw i32 %190, 1
  store i32 %191, i32* %7, align 4
  br label %13

192:                                              ; preds = %13
  ret i32 0
}

declare dso_local i32 @__isoc99_scanf(i8*, ...) #1

declare dso_local i32 @gets(...) #1

; Function Attrs: nounwind readonly
declare dso_local i64 @strlen(i8*) #2

declare dso_local i32 @printf(i8*, ...) #1


!llvm.module.flags = !{!0}
!llvm.ident = !{!1}

!0 = !{i32 1, !"wchar_size", i32 4}
!1 = !{!"clang version 10.0.0-4ubuntu1 "}
